; ModuleID = '50/664.c'
source_filename = "50/664.c"
target datalayout = "e-m:e-p270:32:32-p271:32:32-p272:64:64-i64:64-f80:128-n8:16:32:64-S128"
target triple = "x86_64-pc-linux-gnu"

@.str = private unnamed_addr constant [3 x i8] c"%d\00", align 1
@.str.1 = private unnamed_addr constant [4 x i8] c"%d\0A\00", align 1

; Function Attrs: noinline nounwind uwtable
define dso_local i32 @main() #0 {
  %1 = alloca i32, align 4
  %2 = alloca i32, align 4
  %3 = alloca [12 x i32], align 16
  %4 = alloca i32, align 4
  %5 = alloca i32, align 4
  store i32 0, i32* %1, align 4
  store i32 0, i32* %5, align 4
  %6 = call i32 (i8*, ...) @__isoc99_scanf(i8* getelementptr inbounds ([3 x i8], [3 x i8]* @.str, i64 0, i64 0), i32* %4)
  %7 = getelementptr inbounds [12 x i32], [12 x i32]* %3, i64 0, i64 12
  store i32 0, i32* %7, align 16
  %8 = getelementptr inbounds [12 x i32], [12 x i32]* %3, i64 0, i64 0
  store i32 0, i32* %8, align 16
  store i32 1, i32* %2, align 4
  br label %9

9:                                                ; preds = %41, %0
  %10 = load i32, i32* %2, align 4
  %11 = icmp slt i32 %10, 12
  br i1 %11, label %12, label %44

12:                                               ; preds = %9
  %13 = load i32, i32* %2, align 4
  %14 = icmp eq i32 %13, 2
  br i1 %14, label %15, label %19

15:                                               ; preds = %12
  %16 = load i32, i32* %2, align 4
  %17 = sext i32 %16 to i64
  %18 = getelementptr inbounds [12 x i32], [12 x i32]* %3, i64 0, i64 %17
  store i32 28, i32* %18, align 4
  br label %40

19:                                               ; preds = %12
  %20 = load i32, i32* %2, align 4
  %21 = icmp eq i32 %20, 4
  br i1 %21, label %31, label %22

22:                                               ; preds = %19
  %23 = load i32, i32* %2, align 4
  %24 = icmp eq i32 %23, 6
  br i1 %24, label %31, label %25

25:                                               ; preds = %22
  %26 = load i32, i32* %2, align 4
  %27 = icmp eq i32 %26, 9
  br i1 %27, label %31, label %28

28:                                               ; preds = %25
  %29 = load i32, i32* %2, align 4
  %30 = icmp eq i32 %29, 11
  br i1 %30, label %31, label %35

31:                                               ; preds = %28, %25, %22, %19
  %32 = load i32, i32* %2, align 4
  %33 = sext i32 %32 to i64
  %34 = getelementptr inbounds [12 x i32], [12 x i32]* %3, i64 0, i64 %33
  store i32 30, i32* %34, align 4
  br label %39

35:                                               ; preds = %28
  %36 = load i32, i32* %2, align 4
  %37 = sext i32 %36 to i64
  %38 = getelementptr inbounds [12 x i32], [12 x i32]* %3, i64 0, i64 %37
  store i32 31, i32* %38, align 4
  br label %39

39:                                               ; preds = %35, %31
  br label %40

40:                                               ; preds = %39, %15
  br label %41

41:                                               ; preds = %40
  %42 = load i32, i32* %2, align 4
  %43 = add nsw i32 %42, 1
  store i32 %43, i32* %2, align 4
  br label %9

44:                                               ; preds = %9
  store i32 0, i32* %2, align 4
  br label %45

45:                                               ; preds = %65, %44
  %46 = load i32, i32* %2, align 4
  %47 = icmp slt i32 %46, 12
  br i1 %47, label %48, label %68

48:                                               ; preds = %45
  %49 = load i32, i32* %5, align 4
  %50 = load i32, i32* %2, align 4
  %51 = sext i32 %50 to i64
  %52 = getelementptr inbounds [12 x i32], [12 x i32]* %3, i64 0, i64 %51
  %53 = load i32, i32* %52, align 4
  %54 = add nsw i32 %49, %53
  store i32 %54, i32* %5, align 4
  %55 = load i32, i32* %5, align 4
  %56 = load i32, i32* %4, align 4
  %57 = add nsw i32 %55, %56
  %58 = srem i32 %57, 7
  %59 = icmp eq i32 %58, 0
  br i1 %59, label %60, label %64

60:                                               ; preds = %48
  %61 = load i32, i32* %2, align 4
  %62 = add nsw i32 %61, 1
  %63 = call i32 (i8*, ...) @printf(i8* getelementptr inbounds ([4 x i8], [4 x i8]* @.str.1, i64 0, i64 0), i32 %62)
  br label %64

64:                                               ; preds = %60, %48
  br label %65

65:                                               ; preds = %64
  %66 = load i32, i32* %2, align 4
  %67 = add nsw i32 %66, 1
  store i32 %67, i32* %2, align 4
  br label %45

68:                                               ; preds = %45
  ret i32 0
}

declare dso_local i32 @__isoc99_scanf(i8*, ...) #1

declare dso_local i32 @printf(i8*, ...) #1


!llvm.module.flags = !{!0}
!llvm.ident = !{!1}

!0 = !{i32 1, !"wchar_size", i32 4}
!1 = !{!"clang version 10.0.0-4ubuntu1 "}
